target datalayout = "e-m:e-p270:32:32-p271:32:32-p272:64:64-i64:64-i128:128-f80:128-n8:16:32:64-S128"
target triple = "x86_64-pc-linux-gnu"

%class.btVector3 = type { [4 x float] }
%class.GIM_AABB = type { %class.btVector3, %class.btVector3 }
%class.gim_array = type { ptr, i32, i32 }
%class.GIM_BOX_TREE = type { i32, %class.gim_array.0 }
%class.gim_array.0 = type { ptr, i32, i32 }
%struct.GIM_BOX_TREE_NODE = type { %class.GIM_AABB, i32, i32, i32, i32 }

; Function Attrs: inlinehint mustprogress uwtable
define linkonce_odr dso_local void @_ZN9gim_arrayI17GIM_BOX_TREE_NODEE11destroyDataEv(ptr noundef nonnull align 8 dereferenceable(16) %0) #6 comdat align 2 {
  %2 = alloca ptr, align 8
  store ptr %0, ptr %2, align 8, !tbaa !52
  %3 = load ptr, ptr %2, align 8
  %4 = getelementptr inbounds nuw %class.gim_array.0, ptr %3, i32 0, i32 2
  store i32 0, ptr %4, align 4, !tbaa !64
  %5 = getelementptr inbounds nuw %class.gim_array.0, ptr %3, i32 0, i32 0
  %6 = load ptr, ptr %5, align 8, !tbaa !54
  %7 = icmp eq ptr %6, null
  br i1 %7, label %8, label %9

8:                                                ; preds = %1
  br label %13

9:                                                ; preds = %1
  %10 = getelementptr inbounds nuw %class.gim_array.0, ptr %3, i32 0, i32 0
  %11 = load ptr, ptr %10, align 8, !tbaa !54
  call void @_Z8gim_freePv(ptr noundef %11)
  %12 = getelementptr inbounds nuw %class.gim_array.0, ptr %3, i32 0, i32 0
  store ptr null, ptr %12, align 8, !tbaa !54
  br label %13

13:                                               ; preds = %9, %8
  ret void
}

; Function Attrs: inlinehint mustprogress uwtable
define linkonce_odr dso_local noundef zeroext i1 @_ZN9gim_arrayI17GIM_BOX_TREE_NODEE10resizeDataEj(ptr noundef nonnull align 8 dereferenceable(16) %0, i32 noundef %1) #6 comdat align 2 {
  %3 = alloca i1, align 1
  %4 = alloca ptr, align 8
  %5 = alloca i32, align 4
  store ptr %0, ptr %4, align 8, !tbaa !52
  store i32 %1, ptr %5, align 4, !tbaa !9
  %6 = load ptr, ptr %4, align 8
  %7 = load i32, ptr %5, align 4, !tbaa !9
  %8 = icmp eq i32 %7, 0
  br i1 %8, label %9, label %10

9:                                                ; preds = %2
  call void @_ZN9gim_arrayI17GIM_BOX_TREE_NODEE11destroyDataEv(ptr noundef nonnull align 8 dereferenceable(16) %6)
  store i1 true, ptr %3, align 1
  br label %35

10:                                               ; preds = %2
  %11 = getelementptr inbounds nuw %class.gim_array.0, ptr %6, i32 0, i32 1
  %12 = load i32, ptr %11, align 8, !tbaa !58
  %13 = icmp ugt i32 %12, 0
  br i1 %13, label %14, label %26

14:                                               ; preds = %10
  %15 = getelementptr inbounds nuw %class.gim_array.0, ptr %6, i32 0, i32 0
  %16 = load ptr, ptr %15, align 8, !tbaa !54
  %17 = getelementptr inbounds nuw %class.gim_array.0, ptr %6, i32 0, i32 1
  %18 = load i32, ptr %17, align 8, !tbaa !58
  %19 = zext i32 %18 to i64
  %20 = mul i64 %19, 48
  %21 = load i32, ptr %5, align 4, !tbaa !9
  %22 = zext i32 %21 to i64
  %23 = mul i64 %22, 48
  %24 = call noundef ptr @_Z11gim_reallocPvmm(ptr noundef %16, i64 noundef %20, i64 noundef %23)
  %25 = getelementptr inbounds nuw %class.gim_array.0, ptr %6, i32 0, i32 0
  store ptr %24, ptr %25, align 8, !tbaa !54
  br label %32

26:                                               ; preds = %10
  %27 = load i32, ptr %5, align 4, !tbaa !9
  %28 = zext i32 %27 to i64
  %29 = mul i64 %28, 48
  %30 = call noundef ptr @_Z9gim_allocm(i64 noundef %29)
  %31 = getelementptr inbounds nuw %class.gim_array.0, ptr %6, i32 0, i32 0
  store ptr %30, ptr %31, align 8, !tbaa !54
  br label %32

32:                                               ; preds = %26, %14
  %33 = load i32, ptr %5, align 4, !tbaa !9
  %34 = getelementptr inbounds nuw %class.gim_array.0, ptr %6, i32 0, i32 2
  store i32 %33, ptr %34, align 4, !tbaa !64
  store i1 true, ptr %3, align 1
  br label %35

35:                                               ; preds = %32, %9
  %36 = load i1, ptr %3, align 1
  ret i1 %36
}

; Function Attrs: inlinehint mustprogress nounwind uwtable
define linkonce_odr dso_local void @_ZN9btVector3C2Ev(ptr noundef nonnull align 4 dereferenceable(16) %0) unnamed_addr #4 comdat align 2 {
  %2 = alloca ptr, align 8
  store ptr %0, ptr %2, align 8, !tbaa !22
  ret void
}

; Function Attrs: inlinehint mustprogress nounwind uwtable
define linkonce_odr dso_local void @_ZN9gim_arrayI17GIM_BOX_TREE_NODEE11clear_rangeEj(ptr noundef nonnull align 8 dereferenceable(16) %0, i32 noundef %1) #4 comdat align 2 {
  %3 = alloca ptr, align 8
  %4 = alloca i32, align 4
  store ptr %0, ptr %3, align 8, !tbaa !52
  store i32 %1, ptr %4, align 4, !tbaa !9
  %5 = load ptr, ptr %3, align 8
  br label %6

6:                                                ; preds = %11, %2
  %7 = getelementptr inbounds nuw %class.gim_array.0, ptr %5, i32 0, i32 1
  %8 = load i32, ptr %7, align 8, !tbaa !58
  %9 = load i32, ptr %4, align 4, !tbaa !9
  %10 = icmp ugt i32 %8, %9
  br i1 %10, label %11, label %15

11:                                               ; preds = %6
  %12 = getelementptr inbounds nuw %class.gim_array.0, ptr %5, i32 0, i32 1
  %13 = load i32, ptr %12, align 8, !tbaa !58
  %14 = add i32 %13, -1
  store i32 %14, ptr %12, align 8, !tbaa !58
  br label %6, !llvm.loop !65

15:                                               ; preds = %6
  ret void
}

; Function Attrs: inlinehint mustprogress uwtable
define linkonce_odr dso_local noundef zeroext i1 @_ZN9gim_arrayI17GIM_BOX_TREE_NODEE7reserveEj(ptr noundef nonnull align 8 dereferenceable(16) %0, i32 noundef %1) #6 comdat align 2 {
  %3 = alloca i1, align 1
  %4 = alloca ptr, align 8
  %5 = alloca i32, align 4
  store ptr %0, ptr %4, align 8, !tbaa !52
  store i32 %1, ptr %5, align 4, !tbaa !9
  %6 = load ptr, ptr %4, align 8
  %7 = getelementptr inbounds nuw %class.gim_array.0, ptr %6, i32 0, i32 2
  %8 = load i32, ptr %7, align 4, !tbaa !64
  %9 = load i32, ptr %5, align 4, !tbaa !9
  %10 = icmp uge i32 %8, %9
  br i1 %10, label %11, label %12

11:                                               ; preds = %2
  store i1 false, ptr %3, align 1
  br label %15

12:                                               ; preds = %2
  %13 = load i32, ptr %5, align 4, !tbaa !9
  %14 = call noundef zeroext i1 @_ZN9gim_arrayI17GIM_BOX_TREE_NODEE10resizeDataEj(ptr noundef nonnull align 8 dereferenceable(16) %6, i32 noundef %13)
  store i1 %14, ptr %3, align 1
  br label %15

15:                                               ; preds = %12, %11
  %16 = load i1, ptr %3, align 1
  ret i1 %16
}

; Function Attrs: mustprogress uwtable
define linkonce_odr dso_local void @_ZN8GIM_AABBC2Ev(ptr noundef nonnull align 4 dereferenceable(32) %0) unnamed_addr #8 comdat align 2 {
  %2 = alloca ptr, align 8
  store ptr %0, ptr %2, align 8, !tbaa !55
  %3 = load ptr, ptr %2, align 8
  %4 = getelementptr inbounds nuw %class.GIM_AABB, ptr %3, i32 0, i32 0
  call void @_ZN9btVector3C2Ev(ptr noundef nonnull align 4 dereferenceable(16) %4)
  %5 = getelementptr inbounds nuw %class.GIM_AABB, ptr %3, i32 0, i32 1
  call void @_ZN9btVector3C2Ev(ptr noundef nonnull align 4 dereferenceable(16) %5)
  ret void
}

; Function Attrs: inlinehint mustprogress uwtable
define linkonce_odr dso_local void @_ZN9gim_arrayI17GIM_BOX_TREE_NODEE6resizeEjbRKS0_(ptr noundef nonnull align 8 dereferenceable(16) %0, i32 noundef %1, i1 noundef zeroext %2, ptr noundef nonnull align 4 dereferenceable(48) %3) #6 comdat align 2 {
  %5 = alloca ptr, align 8
  %6 = alloca i32, align 4
  %7 = alloca i8, align 1
  %8 = alloca ptr, align 8
  store ptr %0, ptr %5, align 8, !tbaa !52
  store i32 %1, ptr %6, align 4, !tbaa !9
  %9 = zext i1 %2 to i8
  store i8 %9, ptr %7, align 1, !tbaa !33
  store ptr %3, ptr %8, align 8, !tbaa !57
  %10 = load ptr, ptr %5, align 8
  %11 = load i32, ptr %6, align 4, !tbaa !9
  %12 = getelementptr inbounds nuw %class.gim_array.0, ptr %10, i32 0, i32 1
  %13 = load i32, ptr %12, align 8, !tbaa !58
  %14 = icmp ugt i32 %11, %13
  br i1 %14, label %15, label %42

15:                                               ; preds = %4
  %16 = load i32, ptr %6, align 4, !tbaa !9
  %17 = call noundef zeroext i1 @_ZN9gim_arrayI17GIM_BOX_TREE_NODEE7reserveEj(ptr noundef nonnull align 8 dereferenceable(16) %10, i32 noundef %16)
  %18 = load i8, ptr %7, align 1, !tbaa !33, !range !35, !noundef !36
  %19 = trunc i8 %18 to i1
  br i1 %19, label %20, label %38

20:                                               ; preds = %15
  br label %21

21:                                               ; preds = %26, %20
  %22 = getelementptr inbounds nuw %class.gim_array.0, ptr %10, i32 0, i32 1
  %23 = load i32, ptr %22, align 8, !tbaa !58
  %24 = load i32, ptr %6, align 4, !tbaa !9
  %25 = icmp ult i32 %23, %24
  br i1 %25, label %26, label %37

26:                                               ; preds = %21
  %27 = load ptr, ptr %8, align 8, !tbaa !57
  %28 = getelementptr inbounds nuw %class.gim_array.0, ptr %10, i32 0, i32 0
  %29 = load ptr, ptr %28, align 8, !tbaa !54
  %30 = getelementptr inbounds nuw %class.gim_array.0, ptr %10, i32 0, i32 1
  %31 = load i32, ptr %30, align 8, !tbaa !58
  %32 = zext i32 %31 to i64
  %33 = getelementptr inbounds nuw %struct.GIM_BOX_TREE_NODE, ptr %29, i64 %32
  call void @llvm.memcpy.p0.p0.i64(ptr align 4 %33, ptr align 4 %27, i64 48, i1 false), !tbaa.struct !59
  %34 = getelementptr inbounds nuw %class.gim_array.0, ptr %10, i32 0, i32 1
  %35 = load i32, ptr %34, align 8, !tbaa !58
  %36 = add i32 %35, 1
  store i32 %36, ptr %34, align 8, !tbaa !58
  br label %21, !llvm.loop !60

37:                                               ; preds = %21
  br label %41

38:                                               ; preds = %15
  %39 = load i32, ptr %6, align 4, !tbaa !9
  %40 = getelementptr inbounds nuw %class.gim_array.0, ptr %10, i32 0, i32 1
  store i32 %39, ptr %40, align 8, !tbaa !58
  br label %41

41:                                               ; preds = %38, %37
  br label %56

42:                                               ; preds = %4
  %43 = load i32, ptr %6, align 4, !tbaa !9
  %44 = getelementptr inbounds nuw %class.gim_array.0, ptr %10, i32 0, i32 1
  %45 = load i32, ptr %44, align 8, !tbaa !58
  %46 = icmp ult i32 %43, %45
  br i1 %46, label %47, label %55

47:                                               ; preds = %42
  %48 = load i8, ptr %7, align 1, !tbaa !33, !range !35, !noundef !36
  %49 = trunc i8 %48 to i1
  br i1 %49, label %50, label %52

50:                                               ; preds = %47
  %51 = load i32, ptr %6, align 4, !tbaa !9
  call void @_ZN9gim_arrayI17GIM_BOX_TREE_NODEE11clear_rangeEj(ptr noundef nonnull align 8 dereferenceable(16) %10, i32 noundef %51)
  br label %52

52:                                               ; preds = %50, %47
  %53 = load i32, ptr %6, align 4, !tbaa !9
  %54 = getelementptr inbounds nuw %class.gim_array.0, ptr %10, i32 0, i32 1
  store i32 %53, ptr %54, align 8, !tbaa !58
  br label %55

55:                                               ; preds = %52, %42
  br label %56

56:                                               ; preds = %55, %41
  ret void
}

; Function Attrs: mustprogress uwtable
define linkonce_odr dso_local void @_ZN17GIM_BOX_TREE_NODEC2Ev(ptr noundef nonnull align 4 dereferenceable(48) %0) unnamed_addr #8 comdat align 2 {
  %2 = alloca ptr, align 8
  store ptr %0, ptr %2, align 8, !tbaa !57
  %3 = load ptr, ptr %2, align 8
  %4 = getelementptr inbounds nuw %struct.GIM_BOX_TREE_NODE, ptr %3, i32 0, i32 0
  call void @_ZN8GIM_AABBC2Ev(ptr noundef nonnull align 4 dereferenceable(32) %4)
  %5 = getelementptr inbounds nuw %struct.GIM_BOX_TREE_NODE, ptr %3, i32 0, i32 1
  store i32 0, ptr %5, align 4, !tbaa !41
  %6 = getelementptr inbounds nuw %struct.GIM_BOX_TREE_NODE, ptr %3, i32 0, i32 2
  store i32 0, ptr %6, align 4, !tbaa !45
  %7 = getelementptr inbounds nuw %struct.GIM_BOX_TREE_NODE, ptr %3, i32 0, i32 3
  store i32 0, ptr %7, align 4, !tbaa !46
  %8 = getelementptr inbounds nuw %struct.GIM_BOX_TREE_NODE, ptr %3, i32 0, i32 4
  store i32 0, ptr %8, align 4, !tbaa !50
  ret void
}

; Function Attrs: inlinehint mustprogress nounwind uwtable
define linkonce_odr dso_local noundef i32 @_ZNK9gim_arrayI13GIM_AABB_DATAE4sizeEv(ptr noundef nonnull align 8 dereferenceable(16) %0) #4 comdat align 2 {
  %2 = alloca ptr, align 8
  store ptr %0, ptr %2, align 8, !tbaa !14
  %3 = load ptr, ptr %2, align 8
  %4 = getelementptr inbounds nuw %class.gim_array, ptr %3, i32 0, i32 1
  %5 = load i32, ptr %4, align 8, !tbaa !61
  ret i32 %5
}

; Function Attrs: mustprogress uwtable
define dso_local void @_ZN12GIM_BOX_TREE10build_treeER9gim_arrayI13GIM_AABB_DATAE(ptr noundef nonnull align 8 dereferenceable(24) %0, ptr noundef nonnull align 8 dereferenceable(16) %1) #8 align 2 {
  %3 = alloca ptr, align 8
  %4 = alloca ptr, align 8
  %5 = alloca %struct.GIM_BOX_TREE_NODE, align 4
  store ptr %0, ptr %3, align 8, !tbaa !12
  store ptr %1, ptr %4, align 8, !tbaa !14
  %6 = load ptr, ptr %3, align 8
  %7 = getelementptr inbounds nuw %class.GIM_BOX_TREE, ptr %6, i32 0, i32 0
  store i32 0, ptr %7, align 8, !tbaa !37
  %8 = getelementptr inbounds nuw %class.GIM_BOX_TREE, ptr %6, i32 0, i32 1
  %9 = load ptr, ptr %4, align 8, !tbaa !14
  %10 = call noundef i32 @_ZNK9gim_arrayI13GIM_AABB_DATAE4sizeEv(ptr noundef nonnull align 8 dereferenceable(16) %9)
  %11 = mul i32 %10, 2
  call void @llvm.lifetime.start.p0(i64 48, ptr %5) #11
  call void @_ZN17GIM_BOX_TREE_NODEC2Ev(ptr noundef nonnull align 4 dereferenceable(48) %5)
  call void @_ZN9gim_arrayI17GIM_BOX_TREE_NODEE6resizeEjbRKS0_(ptr noundef nonnull align 8 dereferenceable(16) %8, i32 noundef %11, i1 noundef zeroext true, ptr noundef nonnull align 4 dereferenceable(48) %5)
  call void @llvm.lifetime.end.p0(i64 48, ptr %5) #11
  %12 = load ptr, ptr %4, align 8, !tbaa !14
  %13 = load ptr, ptr %4, align 8, !tbaa !14
  %14 = call noundef i32 @_ZNK9gim_arrayI13GIM_AABB_DATAE4sizeEv(ptr noundef nonnull align 8 dereferenceable(16) %13)
  call void @_ZN12GIM_BOX_TREE15_build_sub_treeER9gim_arrayI13GIM_AABB_DATAEjj(ptr noundef nonnull align 8 dereferenceable(24) %6, ptr noundef nonnull align 8 dereferenceable(16) %12, i32 noundef 0, i32 noundef %14)
  ret void
}