; Function Attrs: mustprogress uwtable
define dso_local void @_ZN12GIM_BOX_TREE10build_treeER9gim_arrayI13GIM_AABB_DATAE(ptr noundef nonnull align 8 dereferenceable(24) initializes((0, 4)) %0, ptr noundef nonnull align 8 dereferenceable(16) %1) local_unnamed_addr #6 align 2 {
  %3 = alloca %struct.GIM_BOX_TREE_NODE, align 4
  store i32 0, ptr %0, align 8, !tbaa !26
  %4 = getelementptr inbounds nuw i8, ptr %0, i64 8
  %5 = getelementptr inbounds nuw i8, ptr %1, i64 8
  %6 = load i32, ptr %5, align 8, !tbaa !38
  %7 = shl i32 %6, 1
  call void @llvm.lifetime.start.p0(i64 48, ptr nonnull %3)
  %.32..32..32..sroa_idx = getelementptr inbounds nuw i8, ptr %3, i64 32
  call void @llvm.memset.p0.i64(ptr noundef nonnull align 4 dereferenceable(16) %.32..32..32..sroa_idx, i8 0, i64 16, i1 false)
  %8 = getelementptr inbounds nuw i8, ptr %0, i64 16
  %9 = load i32, ptr %8, align 8, !tbaa !39
  %10 = icmp ugt i32 %7, %9
  br i1 %10, label %11, label %35

11:                                               ; preds = %2
  %12 = getelementptr inbounds nuw i8, ptr %0, i64 20
  %13 = load i32, ptr %12, align 4, !tbaa !40
  %.not.i.i = icmp ult i32 %13, %7
  br i1 %.not.i.i, label %14, label %_ZN9gim_arrayI17GIM_BOX_TREE_NODEE7reserveEj.exit.i

14:                                               ; preds = %11
  %.not.i.i.i = icmp eq i32 %9, 0
  br i1 %.not.i.i.i, label %22, label %15

15:                                               ; preds = %14
  %16 = load ptr, ptr %4, align 8, !tbaa !30
  %17 = zext i32 %9 to i64
  %18 = mul nuw nsw i64 %17, 48
  %19 = zext i32 %7 to i64
  %20 = mul nuw nsw i64 %19, 48
  %21 = tail call noundef ptr @_Z11gim_reallocPvmm(ptr noundef %16, i64 noundef %18, i64 noundef %20)
  br label %_ZN9gim_arrayI17GIM_BOX_TREE_NODEE10resizeDataEj.exit.i.i

22:                                               ; preds = %14
  %23 = zext i32 %7 to i64
  %24 = mul nuw nsw i64 %23, 48
  %25 = tail call noundef ptr @_Z9gim_allocm(i64 noundef %24)
  br label %_ZN9gim_arrayI17GIM_BOX_TREE_NODEE10resizeDataEj.exit.i.i

_ZN9gim_arrayI17GIM_BOX_TREE_NODEE10resizeDataEj.exit.i.i: ; preds = %22, %15
  %storemerge.i.i.i = phi ptr [ %25, %22 ], [ %21, %15 ]
  store ptr %storemerge.i.i.i, ptr %4, align 8, !tbaa !30
  store i32 %7, ptr %12, align 4, !tbaa !40
  %.pre = load i32, ptr %8, align 8, !tbaa !39
  br label %_ZN9gim_arrayI17GIM_BOX_TREE_NODEE7reserveEj.exit.i

_ZN9gim_arrayI17GIM_BOX_TREE_NODEE7reserveEj.exit.i: ; preds = %_ZN9gim_arrayI17GIM_BOX_TREE_NODEE10resizeDataEj.exit.i.i, %11
  %26 = phi i32 [ %.pre, %_ZN9gim_arrayI17GIM_BOX_TREE_NODEE10resizeDataEj.exit.i.i ], [ %9, %11 ]
  %27 = icmp ult i32 %26, %7
  br i1 %27, label %.lr.ph.i, label %_ZN9gim_arrayI17GIM_BOX_TREE_NODEE6resizeEjbRKS0_.exit

.lr.ph.i:                                         ; preds = %_ZN9gim_arrayI17GIM_BOX_TREE_NODEE7reserveEj.exit.i, %.lr.ph.i
  %28 = phi i32 [ %33, %.lr.ph.i ], [ %26, %_ZN9gim_arrayI17GIM_BOX_TREE_NODEE7reserveEj.exit.i ]
  %29 = load ptr, ptr %4, align 8, !tbaa !30
  %30 = zext i32 %28 to i64
  %31 = getelementptr inbounds nuw %struct.GIM_BOX_TREE_NODE, ptr %29, i64 %30
  call void @llvm.memcpy.p0.p0.i64(ptr noundef nonnull align 4 dereferenceable(48) %31, ptr noundef nonnull align 4 dereferenceable(48) %3, i64 48, i1 false), !tbaa.struct !41
  %32 = load i32, ptr %8, align 8, !tbaa !39
  %33 = add i32 %32, 1
  store i32 %33, ptr %8, align 8, !tbaa !39
  %34 = icmp ult i32 %33, %7
  br i1 %34, label %.lr.ph.i, label %_ZN9gim_arrayI17GIM_BOX_TREE_NODEE6resizeEjbRKS0_.exit, !llvm.loop !42

35:                                               ; preds = %2
  %36 = icmp ult i32 %7, %9
  br i1 %36, label %.loopexit.sink.split.i, label %_ZN9gim_arrayI17GIM_BOX_TREE_NODEE6resizeEjbRKS0_.exit

.loopexit.sink.split.i:                           ; preds = %35
  store i32 %7, ptr %8, align 8, !tbaa !39
  br label %_ZN9gim_arrayI17GIM_BOX_TREE_NODEE6resizeEjbRKS0_.exit

_ZN9gim_arrayI17GIM_BOX_TREE_NODEE6resizeEjbRKS0_.exit: ; preds = %.lr.ph.i, %_ZN9gim_arrayI17GIM_BOX_TREE_NODEE7reserveEj.exit.i, %35, %.loopexit.sink.split.i
  call void @llvm.lifetime.end.p0(i64 48, ptr nonnull %3)
  %37 = load i32, ptr %5, align 8, !tbaa !38
  tail call void @_ZN12GIM_BOX_TREE15_build_sub_treeER9gim_arrayI13GIM_AABB_DATAEjj(ptr noundef nonnull align 8 dereferenceable(24) %0, ptr noundef nonnull align 8 dereferenceable(16) %1, i32 noundef 0, i32 noundef %37)
  ret void
}